target datalayout = "e-m:e-p270:32:32-p271:32:32-p272:64:64-i64:64-i128:128-f80:128-n8:16:32:64-S128"
target triple = "x86_64-pc-linux-gnu"

%struct.SpGistScanOpaqueData = type { %struct.SpGistState, ptr, ptr, ptr, i8, i8, i32, ptr, i32, i32, ptr, ptr, ptr, i32, %struct.FmgrInfo, %struct.FmgrInfo, ptr, ptr, ptr, i64, i8, ptr, i32, i32, [408 x %struct.ItemPointerData], [408 x i8], [408 x i8], [408 x ptr], [408 x ptr] }
%struct.SpGistState = type { ptr, %struct.spgConfigOut, %struct.SpGistTypeDesc, %struct.SpGistTypeDesc, %struct.SpGistTypeDesc, %struct.SpGistTypeDesc, ptr, ptr, i32, i8 }
%struct.spgConfigOut = type { i32, i32, i32, i8, i8 }
%struct.SpGistTypeDesc = type { i32, i16, i8, i8, i8 }
%struct.FmgrInfo = type { ptr, i32, i16, i8, i8, i8, ptr, ptr, ptr }
%struct.ItemPointerData = type { %struct.BlockIdData, i16 }
%struct.BlockIdData = type { i16, i16 }
%struct.IndexScanDescData = type { ptr, ptr, ptr, i32, i32, ptr, ptr, i8, i8, i8, i8, i8, ptr, ptr, ptr, ptr, ptr, %struct.ItemPointerData, i8, ptr, i8, ptr, ptr, i8, ptr }

@.str.2 = private unnamed_addr constant [45 x i8] c"SP-GiST only supports forward scan direction\00", align 1
@.str.3 = private unnamed_addr constant [10 x i8] c"spgscan.c\00", align 1
@__func__.spggettuple = private unnamed_addr constant [12 x i8] c"spggettuple\00", align 1

; Function Attrs: nounwind uwtable
define dso_local zeroext i1 @spggettuple(ptr noundef %0, i32 noundef %1) #0 {
  %3 = alloca i1, align 1
  %4 = alloca ptr, align 8
  %5 = alloca i32, align 4
  %6 = alloca ptr, align 8
  %7 = alloca i32, align 4
  %8 = alloca i32, align 4
  %9 = alloca i32, align 4
  store ptr %0, ptr %4, align 8
  store i32 %1, ptr %5, align 4
  call void @llvm.lifetime.start.p0(i64 8, ptr %6) #9
  %10 = load ptr, ptr %4, align 8
  %11 = getelementptr inbounds nuw %struct.IndexScanDescData, ptr %10, i32 0, i32 12
  %12 = load ptr, ptr %11, align 8
  store ptr %12, ptr %6, align 8
  %13 = load i32, ptr %5, align 4
  %14 = icmp ne i32 %13, 1
  br i1 %14, label %15, label %26

15:                                               ; preds = %2
  br label %16

16:                                               ; preds = %15
  br i1 true, label %17, label %19

17:                                               ; preds = %16
  %18 = call zeroext i1 @errstart_cold(i32 noundef 21, ptr noundef null) #10
  br i1 %18, label %21, label %23

19:                                               ; preds = %16
  %20 = call zeroext i1 @errstart(i32 noundef 21, ptr noundef null)
  br i1 %20, label %21, label %23

21:                                               ; preds = %19, %17
  %22 = call i32 (ptr, ...) @errmsg_internal(ptr noundef @.str.2)
  call void @errfinish(ptr noundef @.str.3, i32 noundef 1029, ptr noundef @__func__.spggettuple)
  br label %23

23:                                               ; preds = %21, %19, %17
  unreachable

24:                                               ; No predecessors!
  br label %25

25:                                               ; preds = %24
  br label %26

26:                                               ; preds = %25, %2
  %27 = load ptr, ptr %4, align 8
  %28 = getelementptr inbounds nuw %struct.IndexScanDescData, ptr %27, i32 0, i32 7
  %29 = load i8, ptr %28, align 8, !range !7, !noundef !8
  %30 = trunc i8 %29 to i1
  %31 = load ptr, ptr %6, align 8
  %32 = getelementptr inbounds nuw %struct.SpGistScanOpaqueData, ptr %31, i32 0, i32 20
  %33 = zext i1 %30 to i8
  store i8 %33, ptr %32, align 8
  br label %34

34:                                               ; preds = %174, %26
  %35 = load ptr, ptr %6, align 8
  %36 = getelementptr inbounds nuw %struct.SpGistScanOpaqueData, ptr %35, i32 0, i32 23
  %37 = load i32, ptr %36, align 4
  %38 = load ptr, ptr %6, align 8
  %39 = getelementptr inbounds nuw %struct.SpGistScanOpaqueData, ptr %38, i32 0, i32 22
  %40 = load i32, ptr %39, align 8
  %41 = icmp slt i32 %37, %40
  br i1 %41, label %42, label %105

42:                                               ; preds = %34
  %43 = load ptr, ptr %4, align 8
  %44 = getelementptr inbounds nuw %struct.IndexScanDescData, ptr %43, i32 0, i32 17
  %45 = load ptr, ptr %6, align 8
  %46 = getelementptr inbounds nuw %struct.SpGistScanOpaqueData, ptr %45, i32 0, i32 24
  %47 = load ptr, ptr %6, align 8
  %48 = getelementptr inbounds nuw %struct.SpGistScanOpaqueData, ptr %47, i32 0, i32 23
  %49 = load i32, ptr %48, align 4
  %50 = sext i32 %49 to i64
  %51 = getelementptr inbounds [408 x %struct.ItemPointerData], ptr %46, i64 0, i64 %50
  call void @llvm.memcpy.p0.p0.i64(ptr align 8 %44, ptr align 2 %51, i64 6, i1 false)
  %52 = load ptr, ptr %6, align 8
  %53 = getelementptr inbounds nuw %struct.SpGistScanOpaqueData, ptr %52, i32 0, i32 25
  %54 = load ptr, ptr %6, align 8
  %55 = getelementptr inbounds nuw %struct.SpGistScanOpaqueData, ptr %54, i32 0, i32 23
  %56 = load i32, ptr %55, align 4
  %57 = sext i32 %56 to i64
  %58 = getelementptr inbounds [408 x i8], ptr %53, i64 0, i64 %57
  %59 = load i8, ptr %58, align 1, !range !7, !noundef !8
  %60 = trunc i8 %59 to i1
  %61 = load ptr, ptr %4, align 8
  %62 = getelementptr inbounds nuw %struct.IndexScanDescData, ptr %61, i32 0, i32 20
  %63 = zext i1 %60 to i8
  store i8 %63, ptr %62, align 8
  %64 = load ptr, ptr %6, align 8
  %65 = getelementptr inbounds nuw %struct.SpGistScanOpaqueData, ptr %64, i32 0, i32 27
  %66 = load ptr, ptr %6, align 8
  %67 = getelementptr inbounds nuw %struct.SpGistScanOpaqueData, ptr %66, i32 0, i32 23
  %68 = load i32, ptr %67, align 4
  %69 = sext i32 %68 to i64
  %70 = getelementptr inbounds [408 x ptr], ptr %65, i64 0, i64 %69
  %71 = load ptr, ptr %70, align 8
  %72 = load ptr, ptr %4, align 8
  %73 = getelementptr inbounds nuw %struct.IndexScanDescData, ptr %72, i32 0, i32 15
  store ptr %71, ptr %73, align 8
  %74 = load ptr, ptr %6, align 8
  %75 = getelementptr inbounds nuw %struct.SpGistScanOpaqueData, ptr %74, i32 0, i32 8
  %76 = load i32, ptr %75, align 8
  %77 = icmp sgt i32 %76, 0
  br i1 %77, label %78, label %100

78:                                               ; preds = %42
  %79 = load ptr, ptr %4, align 8
  %80 = load ptr, ptr %6, align 8
  %81 = getelementptr inbounds nuw %struct.SpGistScanOpaqueData, ptr %80, i32 0, i32 11
  %82 = load ptr, ptr %81, align 8
  %83 = load ptr, ptr %6, align 8
  %84 = getelementptr inbounds nuw %struct.SpGistScanOpaqueData, ptr %83, i32 0, i32 28
  %85 = load ptr, ptr %6, align 8
  %86 = getelementptr inbounds nuw %struct.SpGistScanOpaqueData, ptr %85, i32 0, i32 23
  %87 = load i32, ptr %86, align 4
  %88 = sext i32 %87 to i64
  %89 = getelementptr inbounds [408 x ptr], ptr %84, i64 0, i64 %88
  %90 = load ptr, ptr %89, align 8
  %91 = load ptr, ptr %6, align 8
  %92 = getelementptr inbounds nuw %struct.SpGistScanOpaqueData, ptr %91, i32 0, i32 26
  %93 = load ptr, ptr %6, align 8
  %94 = getelementptr inbounds nuw %struct.SpGistScanOpaqueData, ptr %93, i32 0, i32 23
  %95 = load i32, ptr %94, align 4
  %96 = sext i32 %95 to i64
  %97 = getelementptr inbounds [408 x i8], ptr %92, i64 0, i64 %96
  %98 = load i8, ptr %97, align 1, !range !7, !noundef !8
  %99 = trunc i8 %98 to i1
  call void @index_store_float8_orderby_distances(ptr noundef %79, ptr noundef %82, ptr noundef %90, i1 noundef zeroext %99)
  br label %100

100:                                              ; preds = %78, %42
  %101 = load ptr, ptr %6, align 8
  %102 = getelementptr inbounds nuw %struct.SpGistScanOpaqueData, ptr %101, i32 0, i32 23
  %103 = load i32, ptr %102, align 4
  %104 = add i32 %103, 1
  store i32 %104, ptr %102, align 4
  store i1 true, ptr %3, align 1
  store i32 1, ptr %7, align 4
  br label %176

105:                                              ; preds = %34
  %106 = load ptr, ptr %6, align 8
  %107 = getelementptr inbounds nuw %struct.SpGistScanOpaqueData, ptr %106, i32 0, i32 8
  %108 = load i32, ptr %107, align 8
  %109 = icmp sgt i32 %108, 0
  br i1 %109, label %110, label %137

110:                                              ; preds = %105
  call void @llvm.lifetime.start.p0(i64 4, ptr %8) #9
  store i32 0, ptr %8, align 4
  br label %111

111:                                              ; preds = %133, %110
  %112 = load i32, ptr %8, align 4
  %113 = load ptr, ptr %6, align 8
  %114 = getelementptr inbounds nuw %struct.SpGistScanOpaqueData, ptr %113, i32 0, i32 22
  %115 = load i32, ptr %114, align 8
  %116 = icmp slt i32 %112, %115
  br i1 %116, label %117, label %136

117:                                              ; preds = %111
  %118 = load ptr, ptr %6, align 8
  %119 = getelementptr inbounds nuw %struct.SpGistScanOpaqueData, ptr %118, i32 0, i32 28
  %120 = load i32, ptr %8, align 4
  %121 = sext i32 %120 to i64
  %122 = getelementptr inbounds [408 x ptr], ptr %119, i64 0, i64 %121
  %123 = load ptr, ptr %122, align 8
  %124 = icmp ne ptr %123, null
  br i1 %124, label %125, label %132

125:                                              ; preds = %117
  %126 = load ptr, ptr %6, align 8
  %127 = getelementptr inbounds nuw %struct.SpGistScanOpaqueData, ptr %126, i32 0, i32 28
  %128 = load i32, ptr %8, align 4
  %129 = sext i32 %128 to i64
  %130 = getelementptr inbounds [408 x ptr], ptr %127, i64 0, i64 %129
  %131 = load ptr, ptr %130, align 8
  call void @pfree(ptr noundef %131)
  br label %132

132:                                              ; preds = %125, %117
  br label %133

133:                                              ; preds = %132
  %134 = load i32, ptr %8, align 4
  %135 = add i32 %134, 1
  store i32 %135, ptr %8, align 4
  br label %111, !llvm.loop !16

136:                                              ; preds = %111
  call void @llvm.lifetime.end.p0(i64 4, ptr %8) #9
  br label %137

137:                                              ; preds = %136, %105
  %138 = load ptr, ptr %6, align 8
  %139 = getelementptr inbounds nuw %struct.SpGistScanOpaqueData, ptr %138, i32 0, i32 20
  %140 = load i8, ptr %139, align 8, !range !7, !noundef !8
  %141 = trunc i8 %140 to i1
  br i1 %141, label %142, label %160

142:                                              ; preds = %137
  call void @llvm.lifetime.start.p0(i64 4, ptr %9) #9
  store i32 0, ptr %9, align 4
  br label %143

143:                                              ; preds = %156, %142
  %144 = load i32, ptr %9, align 4
  %145 = load ptr, ptr %6, align 8
  %146 = getelementptr inbounds nuw %struct.SpGistScanOpaqueData, ptr %145, i32 0, i32 22
  %147 = load i32, ptr %146, align 8
  %148 = icmp slt i32 %144, %147
  br i1 %148, label %149, label %159

149:                                              ; preds = %143
  %150 = load ptr, ptr %6, align 8
  %151 = getelementptr inbounds nuw %struct.SpGistScanOpaqueData, ptr %150, i32 0, i32 27
  %152 = load i32, ptr %9, align 4
  %153 = sext i32 %152 to i64
  %154 = getelementptr inbounds [408 x ptr], ptr %151, i64 0, i64 %153
  %155 = load ptr, ptr %154, align 8
  call void @pfree(ptr noundef %155)
  br label %156

156:                                              ; preds = %149
  %157 = load i32, ptr %9, align 4
  %158 = add i32 %157, 1
  store i32 %158, ptr %9, align 4
  br label %143, !llvm.loop !17

159:                                              ; preds = %143
  call void @llvm.lifetime.end.p0(i64 4, ptr %9) #9
  br label %160

160:                                              ; preds = %159, %137
  %161 = load ptr, ptr %6, align 8
  %162 = getelementptr inbounds nuw %struct.SpGistScanOpaqueData, ptr %161, i32 0, i32 22
  store i32 0, ptr %162, align 8
  %163 = load ptr, ptr %6, align 8
  %164 = getelementptr inbounds nuw %struct.SpGistScanOpaqueData, ptr %163, i32 0, i32 23
  store i32 0, ptr %164, align 4
  %165 = load ptr, ptr %4, align 8
  %166 = getelementptr inbounds nuw %struct.IndexScanDescData, ptr %165, i32 0, i32 1
  %167 = load ptr, ptr %166, align 8
  %168 = load ptr, ptr %6, align 8
  call void @spgWalk(ptr noundef %167, ptr noundef %168, i1 noundef zeroext false, ptr noundef @storeGettuple)
  %169 = load ptr, ptr %6, align 8
  %170 = getelementptr inbounds nuw %struct.SpGistScanOpaqueData, ptr %169, i32 0, i32 22
  %171 = load i32, ptr %170, align 8
  %172 = icmp eq i32 %171, 0
  br i1 %172, label %173, label %174

173:                                              ; preds = %160
  br label %175

174:                                              ; preds = %160
  br label %34

175:                                              ; preds = %173
  store i1 false, ptr %3, align 1
  store i32 1, ptr %7, align 4
  br label %176

176:                                              ; preds = %175, %100
  call void @llvm.lifetime.end.p0(i64 8, ptr %6) #9
  %177 = load i1, ptr %3, align 1
  ret i1 %177
}