; Function Attrs: nounwind uwtable
define dso_local noundef zeroext i1 @spggettuple(ptr noundef %0, i32 noundef %1) local_unnamed_addr #0 {
  %3 = getelementptr inbounds nuw i8, ptr %0, i64 56
  %4 = load ptr, ptr %3, align 8
  %.not = icmp eq i32 %1, 1
  br i1 %.not, label %8, label %5

5:                                                ; preds = %2
  %6 = tail call zeroext i1 @errstart_cold(i32 noundef 21, ptr noundef null) #9
  tail call void @llvm.assume(i1 %6)
  %7 = tail call i32 (ptr, ...) @errmsg_internal(ptr noundef nonnull @.str.2) #8
  tail call void @errfinish(ptr noundef nonnull @.str.3, i32 noundef 1029, ptr noundef nonnull @__func__.spggettuple) #8
  unreachable

8:                                                ; preds = %2
  %9 = getelementptr inbounds nuw i8, ptr %0, i64 48
  %10 = load i8, ptr %9, align 8, !range !9, !noundef !10
  %11 = getelementptr inbounds nuw i8, ptr %4, i64 304
  store i8 %10, ptr %11, align 8
  %12 = getelementptr inbounds nuw i8, ptr %4, i64 324
  %13 = getelementptr inbounds nuw i8, ptr %4, i64 320
  %14 = getelementptr inbounds nuw i8, ptr %4, i64 136
  %15 = getelementptr inbounds nuw i8, ptr %4, i64 6856
  %16 = getelementptr inbounds nuw i8, ptr %4, i64 3592
  %17 = getelementptr inbounds nuw i8, ptr %0, i64 8
  %.pre = load i32, ptr %13, align 8
  br label %18

18:                                               ; preds = %.loopexit, %8
  %19 = phi i32 [ %76, %.loopexit ], [ %.pre, %8 ]
  %20 = load i32, ptr %12, align 4
  %21 = icmp slt i32 %20, %19
  br i1 %21, label %22, label %54

22:                                               ; preds = %18
  %23 = getelementptr inbounds nuw i8, ptr %0, i64 96
  %24 = getelementptr inbounds nuw i8, ptr %4, i64 328
  %25 = sext i32 %20 to i64
  %26 = getelementptr inbounds [408 x %struct.ItemPointerData], ptr %24, i64 0, i64 %25
  tail call void @llvm.memcpy.p0.p0.i64(ptr noundef nonnull align 8 dereferenceable(6) %23, ptr noundef nonnull align 2 dereferenceable(6) %26, i64 6, i1 false)
  %27 = getelementptr inbounds nuw i8, ptr %4, i64 2776
  %28 = load i32, ptr %12, align 4
  %29 = sext i32 %28 to i64
  %30 = getelementptr inbounds [408 x i8], ptr %27, i64 0, i64 %29
  %31 = load i8, ptr %30, align 1, !range !9, !noundef !10
  %32 = getelementptr inbounds nuw i8, ptr %0, i64 112
  store i8 %31, ptr %32, align 8
  %33 = load i32, ptr %12, align 4
  %34 = sext i32 %33 to i64
  %35 = getelementptr inbounds [408 x ptr], ptr %16, i64 0, i64 %34
  %36 = load ptr, ptr %35, align 8
  %37 = getelementptr inbounds nuw i8, ptr %0, i64 80
  store ptr %36, ptr %37, align 8
  %38 = load i32, ptr %14, align 8
  %39 = icmp sgt i32 %38, 0
  br i1 %39, label %40, label %51

40:                                               ; preds = %22
  %41 = getelementptr inbounds nuw i8, ptr %4, i64 152
  %42 = load ptr, ptr %41, align 8
  %43 = load i32, ptr %12, align 4
  %44 = sext i32 %43 to i64
  %45 = getelementptr inbounds [408 x ptr], ptr %15, i64 0, i64 %44
  %46 = load ptr, ptr %45, align 8
  %47 = getelementptr inbounds nuw i8, ptr %4, i64 3184
  %48 = getelementptr inbounds [408 x i8], ptr %47, i64 0, i64 %44
  %49 = load i8, ptr %48, align 1, !range !9, !noundef !10
  %50 = trunc nuw i8 %49 to i1
  tail call void @index_store_float8_orderby_distances(ptr noundef nonnull %0, ptr noundef %42, ptr noundef %46, i1 noundef zeroext %50) #8
  br label %51

51:                                               ; preds = %40, %22
  %52 = load i32, ptr %12, align 4
  %53 = add i32 %52, 1
  store i32 %53, ptr %12, align 4
  br label %.loopexit49

54:                                               ; preds = %18
  %55 = load i32, ptr %14, align 8
  %56 = icmp sgt i32 %55, 0
  %57 = icmp sgt i32 %19, 0
  %or.cond = and i1 %56, %57
  br i1 %or.cond, label %.lr.ph, label %.loopexit48

.lr.ph:                                           ; preds = %54, %62
  %58 = phi i32 [ %63, %62 ], [ %19, %54 ]
  %indvars.iv = phi i64 [ %indvars.iv.next, %62 ], [ 0, %54 ]
  %59 = getelementptr inbounds nuw [408 x ptr], ptr %15, i64 0, i64 %indvars.iv
  %60 = load ptr, ptr %59, align 8
  %.not46 = icmp eq ptr %60, null
  br i1 %.not46, label %62, label %61

61:                                               ; preds = %.lr.ph
  tail call void @pfree(ptr noundef nonnull %60) #8
  %.pre65 = load i32, ptr %13, align 8
  br label %62

62:                                               ; preds = %.lr.ph, %61
  %63 = phi i32 [ %58, %.lr.ph ], [ %.pre65, %61 ]
  %indvars.iv.next = add nuw nsw i64 %indvars.iv, 1
  %64 = sext i32 %63 to i64
  %65 = icmp slt i64 %indvars.iv.next, %64
  br i1 %65, label %.lr.ph, label %.loopexit48, !llvm.loop !21

.loopexit48:                                      ; preds = %62, %54
  %66 = phi i32 [ %19, %54 ], [ %63, %62 ]
  %67 = load i8, ptr %11, align 8, !range !9, !noundef !10
  %68 = trunc nuw i8 %67 to i1
  %69 = icmp sgt i32 %66, 0
  %or.cond70 = and i1 %69, %68
  br i1 %or.cond70, label %.lr.ph57, label %.loopexit

.lr.ph57:                                         ; preds = %.loopexit48, %.lr.ph57
  %indvars.iv62 = phi i64 [ %indvars.iv.next63, %.lr.ph57 ], [ 0, %.loopexit48 ]
  %70 = getelementptr inbounds nuw [408 x ptr], ptr %16, i64 0, i64 %indvars.iv62
  %71 = load ptr, ptr %70, align 8
  tail call void @pfree(ptr noundef %71) #8
  %indvars.iv.next63 = add nuw nsw i64 %indvars.iv62, 1
  %72 = load i32, ptr %13, align 8
  %73 = sext i32 %72 to i64
  %74 = icmp slt i64 %indvars.iv.next63, %73
  br i1 %74, label %.lr.ph57, label %.loopexit, !llvm.loop !22

.loopexit:                                        ; preds = %.lr.ph57, %.loopexit48
  store i32 0, ptr %13, align 8
  store i32 0, ptr %12, align 4
  %75 = load ptr, ptr %17, align 8
  tail call fastcc void @spgWalk(ptr noundef %75, ptr noundef nonnull %4, i1 noundef zeroext false, ptr noundef nonnull @storeGettuple)
  %76 = load i32, ptr %13, align 8
  %77 = icmp eq i32 %76, 0
  br i1 %77, label %.loopexit49, label %18

.loopexit49:                                      ; preds = %.loopexit, %51
  ret i1 %21
}